target datalayout = "e-m:e-p270:32:32-p271:32:32-p272:64:64-i64:64-i128:128-f80:128-n8:16:32:64-S128"
target triple = "x86_64-pc-linux-gnu"

%struct.rb_shape_tree_t = type { ptr, ptr, i32, ptr, i32 }
%struct.rb_shape = type { ptr, i64, i32, i32, i8, i8, i32, ptr }

@rb_shape_tree_ptr = hidden global ptr null, align 8

; Function Attrs: inlinehint nounwind sspstrong uwtable
define internal ptr @rb_current_shape_tree() #1 {
  %1 = load ptr, ptr @rb_shape_tree_ptr, align 8, !tbaa !15
  ret ptr %1
}

; Function Attrs: nounwind sspstrong uwtable
define hidden ptr @rb_shape_get_shape_by_id(i32 noundef %0) #0 {
  %2 = alloca i32, align 4
  %3 = alloca ptr, align 8
  store i32 %0, ptr %2, align 4, !tbaa !21
  call void @llvm.lifetime.start.p0(i64 8, ptr %3) #14
  %4 = call ptr @rb_current_shape_tree()
  %5 = getelementptr inbounds nuw %struct.rb_shape_tree_t, ptr %4, i32 0, i32 0
  %6 = load ptr, ptr %5, align 8, !tbaa !17
  %7 = load i32, ptr %2, align 4, !tbaa !21
  %8 = zext i32 %7 to i64
  %9 = getelementptr %struct.rb_shape, ptr %6, i64 %8
  store ptr %9, ptr %3, align 8, !tbaa !16
  %10 = load ptr, ptr %3, align 8, !tbaa !16
  call void @llvm.lifetime.end.p0(i64 8, ptr %3) #14
  ret ptr %10
}

; Function Attrs: nounwind sspstrong uwtable
define hidden ptr @rb_shape_get_parent(ptr noundef %0) #0 {
  %2 = alloca ptr, align 8
  store ptr %0, ptr %2, align 8, !tbaa !16
  %3 = load ptr, ptr %2, align 8, !tbaa !16
  %4 = getelementptr inbounds nuw %struct.rb_shape, ptr %3, i32 0, i32 6
  %5 = load i32, ptr %4, align 4, !tbaa !22
  %6 = call ptr @rb_shape_get_shape_by_id(i32 noundef %5)
  ret ptr %6
}