; Function Attrs: mustprogress nofree norecurse nosync nounwind sspstrong willreturn memory(read, inaccessiblemem: none) uwtable
define hidden ptr @rb_shape_get_parent(ptr noundef readonly captures(none) %0) local_unnamed_addr #0 {
  %2 = getelementptr inbounds nuw i8, ptr %0, i64 28
  %3 = load i32, ptr %2, align 4, !tbaa !20
  %4 = load ptr, ptr @rb_shape_tree_ptr, align 8, !tbaa !7
  %5 = load ptr, ptr %4, align 8, !tbaa !16
  %6 = zext i32 %3 to i64
  %7 = getelementptr %struct.rb_shape, ptr %5, i64 %6
  ret ptr %7
}